; Function Attrs: mustprogress nofree norecurse nosync nounwind willreturn memory(argmem: readwrite) uwtable
define void @_ZN6icu_7514SimpleTimeZone9constructEiaaaiNS0_8TimeModeEaaaiS1_iR10UErrorCode(ptr nocapture noundef nonnull align 8 dereferenceable(160) %this, i32 noundef %rawOffsetGMT, i8 noundef signext %savingsStartMonth, i8 noundef signext %savingsStartDay, i8 noundef signext %savingsStartDayOfWeek, i32 noundef %savingsStartTime, i32 noundef %savingsStartTimeMode, i8 noundef signext %savingsEndMonth, i8 noundef signext %savingsEndDay, i8 noundef signext %savingsEndDayOfWeek, i32 noundef %savingsEndTime, i32 noundef %savingsEndTimeMode, i32 noundef %savingsDST, ptr nocapture noundef nonnull align 4 dereferenceable(4) %status) local_unnamed_addr #5 align 2 {
entry:
  %rawOffset = getelementptr inbounds i8, ptr %this, i64 100
  store i32 %rawOffsetGMT, ptr %rawOffset, align 4
  %startMonth = getelementptr inbounds i8, ptr %this, i64 72
  store i8 %savingsStartMonth, ptr %startMonth, align 8
  %startDay = getelementptr inbounds i8, ptr %this, i64 73
  store i8 %savingsStartDay, ptr %startDay, align 1
  %startDayOfWeek = getelementptr inbounds i8, ptr %this, i64 74
  store i8 %savingsStartDayOfWeek, ptr %startDayOfWeek, align 2
  %startTime = getelementptr inbounds i8, ptr %this, i64 76
  store i32 %savingsStartTime, ptr %startTime, align 4
  %startTimeMode = getelementptr inbounds i8, ptr %this, i64 80
  store i32 %savingsStartTimeMode, ptr %startTimeMode, align 8
  %endMonth = getelementptr inbounds i8, ptr %this, i64 88
  store i8 %savingsEndMonth, ptr %endMonth, align 8
  %endDay = getelementptr inbounds i8, ptr %this, i64 89
  store i8 %savingsEndDay, ptr %endDay, align 1
  %endDayOfWeek = getelementptr inbounds i8, ptr %this, i64 90
  store i8 %savingsEndDayOfWeek, ptr %endDayOfWeek, align 2
  %endTime = getelementptr inbounds i8, ptr %this, i64 92
  store i32 %savingsEndTime, ptr %endTime, align 4
  %endTimeMode = getelementptr inbounds i8, ptr %this, i64 84
  store i32 %savingsEndTimeMode, ptr %endTimeMode, align 4
  %dstSavings = getelementptr inbounds i8, ptr %this, i64 116
  store i32 %savingsDST, ptr %dstSavings, align 4
  %startYear = getelementptr inbounds i8, ptr %this, i64 96
  store i32 0, ptr %startYear, align 8
  %startMode = getelementptr inbounds i8, ptr %this, i64 108
  store i32 1, ptr %startMode, align 4
  %endMode = getelementptr inbounds i8, ptr %this, i64 112
  store i32 1, ptr %endMode, align 8
  tail call void @_ZN6icu_7514SimpleTimeZone11decodeRulesER10UErrorCode(ptr noundef nonnull align 8 dereferenceable(160) %this, ptr noundef nonnull align 4 dereferenceable(4) %status)
  %cmp = icmp eq i32 %savingsDST, 0
  br i1 %cmp, label %if.then, label %if.end

if.then:                                          ; preds = %entry
  store i32 1, ptr %status, align 4
  br label %if.end

if.end:                                           ; preds = %if.then, %entry
  ret void
}